; Function Attrs: mustprogress nounwind uwtable
define hidden noundef nonnull align 8 dereferenceable(36) ptr @_ZN4llvh14raw_fd_ostream12reverseColorEv(ptr noundef nonnull returned align 8 dereferenceable(72) %this) unnamed_addr #0 align 2 {
entry:
  %call = tail call noundef zeroext i1 @_ZN4llvh3sys7Process15ColorNeedsFlushEv() #26
  br i1 %call, label %if.then, label %if.end

if.then:                                          ; preds = %entry
  %OutBufCur.i = getelementptr inbounds i8, ptr %this, i64 24
  %0 = load ptr, ptr %OutBufCur.i, align 8
  %OutBufStart.i = getelementptr inbounds i8, ptr %this, i64 8
  %1 = load ptr, ptr %OutBufStart.i, align 8
  %cmp.not.i = icmp eq ptr %0, %1
  br i1 %cmp.not.i, label %if.end, label %if.then.i

if.then.i:                                        ; preds = %if.then
  %sub.ptr.lhs.cast.i.i = ptrtoint ptr %0 to i64
  %sub.ptr.rhs.cast.i.i = ptrtoint ptr %1 to i64
  %sub.ptr.sub.i.i = sub i64 %sub.ptr.lhs.cast.i.i, %sub.ptr.rhs.cast.i.i
  store ptr %1, ptr %OutBufCur.i, align 8
  %vtable.i.i = load ptr, ptr %this, align 8
  %vfn.i.i = getelementptr inbounds i8, ptr %vtable.i.i, i64 56
  %2 = load ptr, ptr %vfn.i.i, align 8
  tail call void %2(ptr noundef nonnull align 8 dereferenceable(36) %this, ptr noundef %1, i64 noundef %sub.ptr.sub.i.i) #26
  br label %if.end

if.end:                                           ; preds = %if.then.i, %if.then, %entry
  %call2 = tail call noundef ptr @_ZN4llvh3sys7Process13OutputReverseEv() #26
  %tobool.not = icmp eq ptr %call2, null
  br i1 %tobool.not, label %if.end6, label %if.then3

if.then3:                                         ; preds = %if.end
  %call4 = tail call i64 @strlen(ptr noundef nonnull dereferenceable(1) %call2) #29
  %call5 = tail call noundef nonnull align 8 dereferenceable(36) ptr @_ZN4llvh11raw_ostream5writeEPKcm(ptr noundef nonnull align 8 dereferenceable(36) %this, ptr noundef nonnull %call2, i64 noundef %call4)
  %pos = getelementptr inbounds i8, ptr %this, i64 64
  %3 = load i64, ptr %pos, align 8
  %sub = sub i64 %3, %call4
  store i64 %sub, ptr %pos, align 8
  br label %if.end6

if.end6:                                          ; preds = %if.then3, %if.end
  ret ptr %this
}